; Function Attrs: nounwind uwtable
define i32 @fdt_parent_offset(ptr noundef %0, i32 noundef %1) local_unnamed_addr #0 {
  %3 = alloca i32, align 4
  %4 = alloca i32, align 4
  call void @llvm.lifetime.start.p0(i64 4, ptr nonnull %4) #9
  %5 = tail call i32 @fdt_ro_probe_(ptr noundef %0) #9
  %6 = icmp sgt i32 %5, -1
  br i1 %6, label %7, label %fdt_supernode_atdepth_offset.exit.thread.i

7:                                                ; preds = %2
  store i32 0, ptr %4, align 4, !tbaa !6
  %8 = icmp sgt i32 %1, -1
  br i1 %8, label %.lr.ph.i.i.preheader, label %fdt_supernode_atdepth_offset.exit.thread.i

.lr.ph.i.i.preheader:                             ; preds = %7
  %9 = icmp eq i32 %1, 0
  br i1 %9, label %.thread, label %.lr.ph

.thread:                                          ; preds = %.lr.ph.i.i.preheader
  call void @llvm.lifetime.end.p0(i64 4, ptr nonnull %4) #9
  br label %fdt_node_depth.exit

.lr.ph.ithread-pre-split.i:                       ; preds = %.lr.ph
  %.pr.i = load i32, ptr %4, align 4, !tbaa !6
  %10 = icmp eq i32 %.pr.i, 0
  %spec.select.i.i = select i1 %10, i32 %13, i32 %spec.select.i.fr.i17
  %spec.select.i.fr.i = freeze i32 %spec.select.i.i
  %11 = icmp eq i32 %13, %1
  br i1 %11, label %.lr.ph.i.i._crit_edge, label %.lr.ph

.lr.ph.i.i._crit_edge:                            ; preds = %.lr.ph.ithread-pre-split.i
  %12 = icmp slt i32 %.pr.i, 0
  br i1 %12, label %fdt_supernode_atdepth_offset.exit.thread.i, label %fdt_supernode_atdepth_offset.exit.i

.lr.ph:                                           ; preds = %.lr.ph.i.i.preheader, %.lr.ph.ithread-pre-split.i
  %spec.select.i.fr.i17 = phi i32 [ %spec.select.i.fr.i, %.lr.ph.ithread-pre-split.i ], [ 0, %.lr.ph.i.i.preheader ]
  %.02530.i.i16 = phi i32 [ %13, %.lr.ph.ithread-pre-split.i ], [ 0, %.lr.ph.i.i.preheader ]
  %13 = call i32 @fdt_next_node(ptr noundef %0, i32 noundef %.02530.i.i16, ptr noundef nonnull %4) #9
  %.not32.i.i = icmp ugt i32 %13, %1
  br i1 %.not32.i.i, label %._crit_edge.i.i, label %.lr.ph.ithread-pre-split.i, !llvm.loop !23

._crit_edge.i.i:                                  ; preds = %.lr.ph
  %or.cond.i.i = icmp sgt i32 %13, -2
  br i1 %or.cond.i.i, label %fdt_supernode_atdepth_offset.exit.thread.i, label %14

14:                                               ; preds = %._crit_edge.i.i
  %15 = icmp eq i32 %13, -4
  %..025.i.i = select i1 %15, i32 -11, i32 %13
  br label %fdt_supernode_atdepth_offset.exit.thread.i

fdt_supernode_atdepth_offset.exit.thread.i:       ; preds = %14, %._crit_edge.i.i, %.lr.ph.i.i._crit_edge, %7, %2
  %.1.i.ph.i = phi i32 [ -4, %7 ], [ %..025.i.i, %14 ], [ -4, %._crit_edge.i.i ], [ %5, %2 ], [ -1, %.lr.ph.i.i._crit_edge ]
  call void @llvm.lifetime.end.p0(i64 4, ptr nonnull %4) #9
  br label %fdt_node_depth.exit.thread

fdt_supernode_atdepth_offset.exit.i:              ; preds = %.lr.ph.i.i._crit_edge
  call void @llvm.lifetime.end.p0(i64 4, ptr nonnull %4) #9
  %.not.i.not = icmp eq i32 %spec.select.i.fr.i, 0
  %16 = icmp slt i32 %spec.select.i.fr.i, 0
  %spec.select.i.fr.i.lcssa.mux = select i1 %16, i32 %spec.select.i.fr.i, i32 -13
  br i1 %.not.i.not, label %fdt_node_depth.exit, label %fdt_node_depth.exit.thread

fdt_node_depth.exit:                              ; preds = %fdt_supernode_atdepth_offset.exit.i, %.thread
  %.lcssa13273236 = phi i32 [ 0, %.thread ], [ %.pr.i, %fdt_supernode_atdepth_offset.exit.i ]
  %17 = add nsw i32 %.lcssa13273236, -1
  call void @llvm.lifetime.start.p0(i64 4, ptr nonnull %3) #9
  %18 = call i32 @fdt_ro_probe_(ptr noundef %0) #9
  %19 = icmp sgt i32 %18, -1
  br i1 %19, label %20, label %fdt_supernode_atdepth_offset.exit

20:                                               ; preds = %fdt_node_depth.exit
  %21 = icmp eq i32 %.lcssa13273236, 0
  br i1 %21, label %fdt_supernode_atdepth_offset.exit, label %22

22:                                               ; preds = %20
  store i32 0, ptr %3, align 4, !tbaa !6
  br label %.lr.ph.i

.lr.ph.i:                                         ; preds = %22, %28
  %.02331.i = phi i32 [ %spec.select.i8, %28 ], [ -13, %22 ]
  %.02530.i = phi i32 [ %29, %28 ], [ 0, %22 ]
  %23 = load i32, ptr %3, align 4, !tbaa !6
  %24 = icmp eq i32 %23, %17
  %spec.select.i8 = select i1 %24, i32 %.02530.i, i32 %.02331.i
  %25 = icmp eq i32 %.02530.i, %1
  br i1 %25, label %26, label %28

26:                                               ; preds = %.lr.ph.i
  %27 = icmp sgt i32 %17, %23
  %.spec.select.i = select i1 %27, i32 -1, i32 %spec.select.i8
  br label %fdt_supernode_atdepth_offset.exit

28:                                               ; preds = %.lr.ph.i
  %29 = call i32 @fdt_next_node(ptr noundef %0, i32 noundef %.02530.i, ptr noundef nonnull %3) #9
  %.not32.i = icmp ugt i32 %29, %1
  br i1 %.not32.i, label %._crit_edge.i, label %.lr.ph.i, !llvm.loop !23

._crit_edge.i:                                    ; preds = %28
  %or.cond.i = icmp sgt i32 %29, -2
  br i1 %or.cond.i, label %fdt_supernode_atdepth_offset.exit, label %30

30:                                               ; preds = %._crit_edge.i
  %31 = icmp eq i32 %29, -4
  %..025.i = select i1 %31, i32 -11, i32 %29
  br label %fdt_supernode_atdepth_offset.exit

fdt_supernode_atdepth_offset.exit:                ; preds = %fdt_node_depth.exit, %20, %26, %._crit_edge.i, %30
  %.1.i = phi i32 [ %18, %fdt_node_depth.exit ], [ -1, %20 ], [ %.spec.select.i, %26 ], [ -4, %._crit_edge.i ], [ %..025.i, %30 ]
  call void @llvm.lifetime.end.p0(i64 4, ptr nonnull %3) #9
  br label %fdt_node_depth.exit.thread

fdt_node_depth.exit.thread:                       ; preds = %fdt_supernode_atdepth_offset.exit.i, %fdt_supernode_atdepth_offset.exit.thread.i, %fdt_supernode_atdepth_offset.exit
  %.0 = phi i32 [ %.1.i, %fdt_supernode_atdepth_offset.exit ], [ %.1.i.ph.i, %fdt_supernode_atdepth_offset.exit.thread.i ], [ %spec.select.i.fr.i.lcssa.mux, %fdt_supernode_atdepth_offset.exit.i ]
  ret i32 %.0
}